; Function Attrs: nofree norecurse nosync nounwind memory(read, inaccessiblemem: none) uwtable
define internal range(i32 0, 101) i32 @nut_probe(ptr noundef readonly captures(none) %0) #0 {
  %2 = getelementptr inbounds nuw i8, ptr %0, i64 16
  %3 = load i32, ptr %2, align 8, !tbaa !4
  %4 = icmp sgt i32 %3, 8
  br i1 %4, label %.lr.ph, label %._crit_edge

.lr.ph:                                           ; preds = %1
  %5 = add nsw i32 %3, -8
  %6 = getelementptr inbounds nuw i8, ptr %0, i64 8
  %7 = load ptr, ptr %6, align 8, !tbaa !11
  %wide.trip.count = zext nneg i32 %5 to i64
  br label %8

8:                                                ; preds = %.lr.ph, %15
  %indvars.iv = phi i64 [ 0, %.lr.ph ], [ %indvars.iv.next, %15 ]
  %9 = getelementptr inbounds nuw i8, ptr %7, i64 %indvars.iv
  %10 = load i32, ptr %9, align 1, !tbaa !12
  %.not = icmp eq i32 %10, 1450855758
  br i1 %.not, label %11, label %15

11:                                               ; preds = %8
  %12 = getelementptr inbounds nuw i8, ptr %9, i64 4
  %13 = load i32, ptr %12, align 1, !tbaa !12
  %14 = icmp eq i32 %13, -1392222433
  br i1 %14, label %._crit_edge, label %15

15:                                               ; preds = %11, %8
  %indvars.iv.next = add nuw nsw i64 %indvars.iv, 1
  %exitcond.not = icmp eq i64 %indvars.iv.next, %wide.trip.count
  br i1 %exitcond.not, label %._crit_edge, label %8, !llvm.loop !13

._crit_edge:                                      ; preds = %11, %15, %1
  %.07 = phi i32 [ 0, %1 ], [ 0, %15 ], [ 100, %11 ]
  ret i32 %.07
}